; Function Attrs: null_pointer_is_valid sspstrong uwtable
define internal fastcc void @dissect_amqp_0_9_method_queue_declare(ptr noundef %0, ptr noundef %1, ptr noundef %2) unnamed_addr #0 {
  %4 = alloca ptr, align 8
  call void @llvm.lifetime.start.p0(i64 8, ptr nonnull %4) #14
  %5 = load i32, ptr @hf_amqp_method_queue_declare_ticket, align 4
  %6 = tail call ptr @proto_tree_add_item(ptr noundef %2, i32 noundef %5, ptr noundef %0, i32 noundef 11, i32 noundef 2, i32 noundef 0)
  %7 = load i32, ptr @hf_amqp_method_queue_declare_queue, align 4
  %8 = tail call zeroext i8 @tvb_get_uint8(ptr noundef %0, i32 noundef 13)
  %9 = zext i8 %8 to i32
  %10 = getelementptr inbounds nuw i8, ptr %1, i64 408
  %11 = load ptr, ptr %10, align 8
  %12 = call ptr @proto_tree_add_item_ret_string(ptr noundef %2, i32 noundef %7, ptr noundef %0, i32 noundef 14, i32 noundef %9, i32 noundef 0, ptr noundef %11, ptr noundef nonnull %4)
  %13 = getelementptr inbounds nuw i8, ptr %1, i64 8
  %14 = load ptr, ptr %13, align 8
  %15 = load ptr, ptr %4, align 8
  call void (ptr, i32, ptr, ...) @col_append_fstr(ptr noundef %14, i32 noundef 25, ptr noundef nonnull @.str.1479, ptr noundef %15)
  %16 = call zeroext i8 @tvb_get_uint8(ptr noundef %0, i32 noundef 13)
  %17 = zext i8 %16 to i32
  %18 = add nuw nsw i32 %17, 14
  %19 = load i32, ptr @hf_amqp_method_queue_declare_passive, align 4
  %20 = call ptr @proto_tree_add_item(ptr noundef %2, i32 noundef %19, ptr noundef %0, i32 noundef %18, i32 noundef 1, i32 noundef 0)
  %21 = load i32, ptr @hf_amqp_method_queue_declare_durable, align 4
  %22 = call ptr @proto_tree_add_item(ptr noundef %2, i32 noundef %21, ptr noundef %0, i32 noundef %18, i32 noundef 1, i32 noundef 0)
  %23 = load i32, ptr @hf_amqp_method_queue_declare_exclusive, align 4
  %24 = call ptr @proto_tree_add_item(ptr noundef %2, i32 noundef %23, ptr noundef %0, i32 noundef %18, i32 noundef 1, i32 noundef 0)
  %25 = load i32, ptr @hf_amqp_method_queue_declare_auto_delete, align 4
  %26 = call ptr @proto_tree_add_item(ptr noundef %2, i32 noundef %25, ptr noundef %0, i32 noundef %18, i32 noundef 1, i32 noundef 0)
  %27 = load i32, ptr @hf_amqp_method_queue_declare_nowait, align 4
  %28 = call ptr @proto_tree_add_item(ptr noundef %2, i32 noundef %27, ptr noundef %0, i32 noundef %18, i32 noundef 1, i32 noundef 0)
  %29 = add nuw nsw i32 %17, 15
  %30 = load i32, ptr @hf_amqp_method_queue_declare_arguments, align 4
  %31 = add nuw nsw i32 %17, 19
  %32 = call i32 @tvb_get_ntohl(ptr noundef %0, i32 noundef %29)
  %33 = call ptr @proto_tree_add_item(ptr noundef %2, i32 noundef %30, ptr noundef %0, i32 noundef %31, i32 noundef %32, i32 noundef 0)
  %34 = call i32 @tvb_get_ntohl(ptr noundef %0, i32 noundef %29)
  call fastcc void @dissect_amqp_0_9_field_table(ptr noundef %0, ptr noundef %1, i32 noundef %31, i32 noundef %34, ptr noundef %33)
  %35 = call i32 @tvb_get_ntohl(ptr noundef %0, i32 noundef %29)
  call void @llvm.lifetime.end.p0(i64 8, ptr nonnull %4) #14
  ret void
}